; Function Attrs: mustprogress uwtable
define hidden void @_ZN3vas2ot8Tracklet20AddUpdatedTrajectoryERKN2cv5Rect_IfEES6_(ptr noundef nonnull align 8 dereferenceable(248) %0, ptr noundef nonnull align 4 dereferenceable(16) %1, ptr noundef nonnull align 4 dereferenceable(16) %2) local_unnamed_addr #0 align 2 {
  %4 = getelementptr inbounds nuw i8, ptr %0, i64 96
  %5 = load ptr, ptr %4, align 8, !tbaa !56
  %6 = getelementptr inbounds nuw i8, ptr %0, i64 112
  %7 = load ptr, ptr %6, align 8, !tbaa !57
  %8 = getelementptr inbounds i8, ptr %7, i64 -16
  %.not.i = icmp eq ptr %5, %8
  br i1 %.not.i, label %12, label %9

9:                                                ; preds = %3
  tail call void @llvm.memcpy.p0.p0.i64(ptr noundef nonnull align 4 dereferenceable(16) %5, ptr noundef nonnull align 4 dereferenceable(16) %1, i64 16, i1 false), !tbaa.struct !58
  %10 = load ptr, ptr %4, align 8, !tbaa !56
  %11 = getelementptr inbounds nuw i8, ptr %10, i64 16
  store ptr %11, ptr %4, align 8, !tbaa !56
  br label %_ZNSt5dequeIN2cv5Rect_IfEESaIS2_EE9push_backERKS2_.exit

12:                                               ; preds = %3
  %13 = getelementptr inbounds nuw i8, ptr %0, i64 48
  tail call void @_ZNSt5dequeIN2cv5Rect_IfEESaIS2_EE16_M_push_back_auxIJRKS2_EEEvDpOT_(ptr noundef nonnull align 8 dereferenceable(80) %13, ptr noundef nonnull align 4 dereferenceable(16) %1)
  br label %_ZNSt5dequeIN2cv5Rect_IfEESaIS2_EE9push_backERKS2_.exit

_ZNSt5dequeIN2cv5Rect_IfEESaIS2_EE9push_backERKS2_.exit: ; preds = %9, %12
  %14 = getelementptr inbounds nuw i8, ptr %0, i64 176
  %15 = load ptr, ptr %14, align 8, !tbaa !56
  %16 = getelementptr inbounds nuw i8, ptr %0, i64 192
  %17 = load ptr, ptr %16, align 8, !tbaa !57
  %18 = getelementptr inbounds i8, ptr %17, i64 -16
  %.not.i3 = icmp eq ptr %15, %18
  br i1 %.not.i3, label %22, label %19

19:                                               ; preds = %_ZNSt5dequeIN2cv5Rect_IfEESaIS2_EE9push_backERKS2_.exit
  tail call void @llvm.memcpy.p0.p0.i64(ptr noundef nonnull align 4 dereferenceable(16) %15, ptr noundef nonnull align 4 dereferenceable(16) %2, i64 16, i1 false), !tbaa.struct !58
  %20 = load ptr, ptr %14, align 8, !tbaa !56
  %21 = getelementptr inbounds nuw i8, ptr %20, i64 16
  store ptr %21, ptr %14, align 8, !tbaa !56
  br label %_ZNSt5dequeIN2cv5Rect_IfEESaIS2_EE9push_backERKS2_.exit4

22:                                               ; preds = %_ZNSt5dequeIN2cv5Rect_IfEESaIS2_EE9push_backERKS2_.exit
  %23 = getelementptr inbounds nuw i8, ptr %0, i64 128
  tail call void @_ZNSt5dequeIN2cv5Rect_IfEESaIS2_EE16_M_push_back_auxIJRKS2_EEEvDpOT_(ptr noundef nonnull align 8 dereferenceable(80) %23, ptr noundef nonnull align 4 dereferenceable(16) %2)
  br label %_ZNSt5dequeIN2cv5Rect_IfEESaIS2_EE9push_backERKS2_.exit4

_ZNSt5dequeIN2cv5Rect_IfEESaIS2_EE9push_backERKS2_.exit4: ; preds = %19, %22
  ret void
}